target datalayout = "e-m:e-p270:32:32-p271:32:32-p272:64:64-i64:64-i128:128-f80:128-n8:16:32:64-S128"
target triple = "x86_64-pc-linux-gnu"

%struct.b2ArenaEntryArray = type { ptr, i32, i32 }
%struct.b2ArenaAllocator = type { ptr, i32, i32, i32, i32, %struct.b2ArenaEntryArray }

; Function Attrs: nounwind uwtable
define hidden { ptr, i64 } @b2ArenaEntryArray_Create(i32 noundef %0) #0 {
  %2 = alloca %struct.b2ArenaEntryArray, align 8
  %3 = alloca i32, align 4
  store i32 %0, ptr %3, align 4, !tbaa !3
  call void @llvm.memset.p0.i64(ptr align 8 %2, i8 0, i64 16, i1 false)
  %4 = load i32, ptr %3, align 4, !tbaa !3
  %5 = icmp sgt i32 %4, 0
  br i1 %5, label %6, label %15

6:                                                ; preds = %1
  %7 = load i32, ptr %3, align 4, !tbaa !3
  %8 = sext i32 %7 to i64
  %9 = mul i64 %8, 24
  %10 = trunc i64 %9 to i32
  %11 = call ptr @b2Alloc(i32 noundef %10)
  %12 = getelementptr inbounds nuw %struct.b2ArenaEntryArray, ptr %2, i32 0, i32 0
  store ptr %11, ptr %12, align 8, !tbaa !7
  %13 = load i32, ptr %3, align 4, !tbaa !3
  %14 = getelementptr inbounds nuw %struct.b2ArenaEntryArray, ptr %2, i32 0, i32 2
  store i32 %13, ptr %14, align 4, !tbaa !11
  br label %15

15:                                               ; preds = %6, %1
  %16 = load { ptr, i64 }, ptr %2, align 8
  ret { ptr, i64 } %16
}

; Function Attrs: nounwind uwtable
define hidden void @b2CreateArenaAllocator(ptr dead_on_unwind noalias writable sret(%struct.b2ArenaAllocator) align 8 %0, i32 noundef %1) #0 {
  %3 = alloca i32, align 4
  %4 = alloca %struct.b2ArenaEntryArray, align 8
  store i32 %1, ptr %3, align 4, !tbaa !3
  call void @llvm.memset.p0.i64(ptr align 8 %0, i8 0, i64 40, i1 false)
  %5 = load i32, ptr %3, align 4, !tbaa !3
  %6 = getelementptr inbounds nuw %struct.b2ArenaAllocator, ptr %0, i32 0, i32 1
  store i32 %5, ptr %6, align 8, !tbaa !14
  %7 = load i32, ptr %3, align 4, !tbaa !3
  %8 = call ptr @b2Alloc(i32 noundef %7)
  %9 = getelementptr inbounds nuw %struct.b2ArenaAllocator, ptr %0, i32 0, i32 0
  store ptr %8, ptr %9, align 8, !tbaa !17
  %10 = getelementptr inbounds nuw %struct.b2ArenaAllocator, ptr %0, i32 0, i32 3
  store i32 0, ptr %10, align 8, !tbaa !18
  %11 = getelementptr inbounds nuw %struct.b2ArenaAllocator, ptr %0, i32 0, i32 4
  store i32 0, ptr %11, align 4, !tbaa !19
  %12 = getelementptr inbounds nuw %struct.b2ArenaAllocator, ptr %0, i32 0, i32 2
  store i32 0, ptr %12, align 4, !tbaa !20
  %13 = getelementptr inbounds nuw %struct.b2ArenaAllocator, ptr %0, i32 0, i32 5
  call void @llvm.lifetime.start.p0(i64 16, ptr %4) #6
  %14 = call { ptr, i64 } @b2ArenaEntryArray_Create(i32 noundef 32)
  %15 = getelementptr inbounds nuw { ptr, i64 }, ptr %4, i32 0, i32 0
  %16 = extractvalue { ptr, i64 } %14, 0
  store ptr %16, ptr %15, align 8
  %17 = getelementptr inbounds nuw { ptr, i64 }, ptr %4, i32 0, i32 1
  %18 = extractvalue { ptr, i64 } %14, 1
  store i64 %18, ptr %17, align 8
  call void @llvm.memcpy.p0.p0.i64(ptr align 8 %13, ptr align 8 %4, i64 16, i1 false), !tbaa.struct !21
  call void @llvm.lifetime.end.p0(i64 16, ptr %4) #6
  ret void
}