; Function Attrs: nounwind uwtable
define hidden void @b2CreateArenaAllocator(ptr dead_on_unwind noalias writable writeonly sret(%struct.b2ArenaAllocator) align 8 captures(none) initializes((0, 40)) %0, i32 noundef %1) local_unnamed_addr #0 {
  %3 = getelementptr inbounds nuw i8, ptr %0, i64 8
  store i32 %1, ptr %3, align 8, !tbaa !11
  %4 = tail call ptr @b2Alloc(i32 noundef %1) #4
  store ptr %4, ptr %0, align 8, !tbaa !14
  %5 = getelementptr inbounds nuw i8, ptr %0, i64 16
  store i32 0, ptr %5, align 8, !tbaa !15
  %6 = getelementptr inbounds nuw i8, ptr %0, i64 20
  store i32 0, ptr %6, align 4, !tbaa !16
  %7 = getelementptr inbounds nuw i8, ptr %0, i64 12
  store i32 0, ptr %7, align 4, !tbaa !17
  %8 = getelementptr inbounds nuw i8, ptr %0, i64 24
  %9 = tail call ptr @b2Alloc(i32 noundef 768) #4
  store ptr %9, ptr %8, align 8, !tbaa !18
  %.sroa.4.0..sroa_idx = getelementptr inbounds nuw i8, ptr %0, i64 32
  store i64 137438953472, ptr %.sroa.4.0..sroa_idx, align 8
  ret void
}